target datalayout = "e-m:e-p270:32:32-p271:32:32-p272:64:64-i64:64-i128:128-f80:128-n8:16:32:64-S128"
target triple = "x86_64-pc-linux-gnu"

@proto_register_bt_tracker.ett = internal global [3 x ptr] [ptr @ett_bt_tracker, ptr @ett_bt_tracker_trackers, ptr @ett_bt_tracker_extension], align 16
@.str.60 = private unnamed_addr constant [19 x i8] c"BitTorrent Tracker\00", align 1
@.str.61 = private unnamed_addr constant [11 x i8] c"BT-Tracker\00", align 1
@.str.62 = private unnamed_addr constant [11 x i8] c"bt-tracker\00", align 1
@proto_bt_tracker = internal global i32 0, align 4
@.str.63 = private unnamed_addr constant [7 x i8] c"enable\00", align 1

; Function Attrs: null_pointer_is_valid sspstrong uwtable
define hidden void @proto_register_bt_tracker() #0 {
  %1 = alloca ptr, align 8
  call void @llvm.lifetime.start.p0(i64 8, ptr %1) #5
  %2 = call i32 @proto_register_protocol(ptr noundef @.str.60, ptr noundef @.str.61, ptr noundef @.str.62)
  store i32 %2, ptr @proto_bt_tracker, align 4
  %3 = load i32, ptr @proto_bt_tracker, align 4
  %4 = call ptr @prefs_register_protocol(i32 noundef %3, ptr noundef null)
  store ptr %4, ptr %1, align 8
  %5 = load ptr, ptr %1, align 8
  call void @prefs_register_obsolete_preference(ptr noundef %5, ptr noundef @.str.63)
  %6 = load i32, ptr @proto_bt_tracker, align 4
  call void @proto_register_field_array(i32 noundef %6, ptr noundef @proto_register_bt_tracker.hf, i32 noundef 30)
  call void @proto_register_subtree_array(ptr noundef @proto_register_bt_tracker.ett, i32 noundef 3)
  call void @llvm.lifetime.end.p0(i64 8, ptr %1) #5
  ret void
}