; Function Attrs: null_pointer_is_valid sspstrong uwtable
define hidden void @proto_register_bt_tracker() local_unnamed_addr #0 {
  %1 = tail call i32 @proto_register_protocol(ptr noundef nonnull @.str.60, ptr noundef nonnull @.str.61, ptr noundef nonnull @.str.62)
  store i32 %1, ptr @proto_bt_tracker, align 4
  %2 = tail call ptr @prefs_register_protocol(i32 noundef %1, ptr noundef null)
  tail call void @prefs_register_obsolete_preference(ptr noundef %2, ptr noundef nonnull @.str.63)
  %3 = load i32, ptr @proto_bt_tracker, align 4
  tail call void @proto_register_field_array(i32 noundef %3, ptr noundef nonnull @proto_register_bt_tracker.hf, i32 noundef 30)
  tail call void @proto_register_subtree_array(ptr noundef nonnull @proto_register_bt_tracker.ett, i32 noundef 3)
  ret void
}